; Function Attrs: mustprogress uwtable
define hidden void @_ZN6google8protobuf8internal14WireFormatLite12WriteMessageEiRKNS0_11MessageLiteEPNS0_2io17CodedOutputStreamE(i32 noundef %0, ptr noundef nonnull align 8 dereferenceable(16) %1, ptr noundef %2) local_unnamed_addr #3 align 2 {
  %4 = shl i32 %0, 3
  %5 = getelementptr inbounds nuw i8, ptr %2, i64 64
  %6 = load ptr, ptr %5, align 8, !tbaa !20
  %7 = load ptr, ptr %2, align 8, !tbaa !25
  %.not.i.i.i = icmp ult ptr %6, %7
  br i1 %.not.i.i.i, label %_ZN6google8protobuf2io19EpsCopyOutputStream11EnsureSpaceEPh.exit.i.i, label %8, !prof !15

8:                                                ; preds = %3
  %9 = tail call noundef ptr @_ZN6google8protobuf2io19EpsCopyOutputStream19EnsureSpaceFallbackEPh(ptr noundef nonnull align 8 dereferenceable(80) %2, ptr noundef %6)
  br label %_ZN6google8protobuf2io19EpsCopyOutputStream11EnsureSpaceEPh.exit.i.i

_ZN6google8protobuf2io19EpsCopyOutputStream11EnsureSpaceEPh.exit.i.i: ; preds = %8, %3
  %.0.i.i.i = phi ptr [ %9, %8 ], [ %6, %3 ]
  store ptr %.0.i.i.i, ptr %5, align 8, !tbaa !20
  %10 = trunc i32 %4 to i8
  %11 = or disjoint i8 %10, 2
  store i8 %11, ptr %.0.i.i.i, align 1, !tbaa !16
  %12 = icmp ult i32 %4, 128
  br i1 %12, label %13, label %15

13:                                               ; preds = %_ZN6google8protobuf2io19EpsCopyOutputStream11EnsureSpaceEPh.exit.i.i
  %14 = getelementptr inbounds nuw i8, ptr %.0.i.i.i, i64 1
  br label %_ZN6google8protobuf2io17CodedOutputStream8WriteTagEj.exit

15:                                               ; preds = %_ZN6google8protobuf2io19EpsCopyOutputStream11EnsureSpaceEPh.exit.i.i
  %16 = or i8 %10, -126
  store i8 %16, ptr %.0.i.i.i, align 1, !tbaa !16
  %17 = lshr i32 %4, 7
  %18 = trunc i32 %17 to i8
  %19 = getelementptr inbounds nuw i8, ptr %.0.i.i.i, i64 1
  store i8 %18, ptr %19, align 1, !tbaa !16
  %20 = icmp ult i32 %4, 16384
  %21 = getelementptr inbounds nuw i8, ptr %.0.i.i.i, i64 2
  br i1 %20, label %_ZN6google8protobuf2io17CodedOutputStream8WriteTagEj.exit, label %.preheader.i.i.preheader

.preheader.i.i.preheader:                         ; preds = %15
  %scevgep11 = getelementptr i8, ptr %.0.i.i.i, i64 1
  %load_initial12 = load i8, ptr %scevgep11, align 1
  br label %.preheader.i.i

.preheader.i.i:                                   ; preds = %.preheader.i.i.preheader, %.preheader.i.i
  %store_forwarded13 = phi i8 [ %load_initial12, %.preheader.i.i.preheader ], [ %25, %.preheader.i.i ]
  %.018.i.i.i.i = phi i32 [ %17, %.preheader.i.i.preheader ], [ %24, %.preheader.i.i ]
  %.0.i.i.i.i = phi ptr [ %21, %.preheader.i.i.preheader ], [ %26, %.preheader.i.i ]
  %22 = getelementptr inbounds i8, ptr %.0.i.i.i.i, i64 -1
  %23 = or i8 %store_forwarded13, -128
  store i8 %23, ptr %22, align 1, !tbaa !16
  %24 = lshr i32 %.018.i.i.i.i, 7
  %25 = trunc i32 %24 to i8
  store i8 %25, ptr %.0.i.i.i.i, align 1, !tbaa !16
  %26 = getelementptr inbounds nuw i8, ptr %.0.i.i.i.i, i64 1
  %27 = icmp samesign ugt i32 %.018.i.i.i.i, 16383
  br i1 %27, label %.preheader.i.i, label %_ZN6google8protobuf2io17CodedOutputStream8WriteTagEj.exit, !llvm.loop !26

_ZN6google8protobuf2io17CodedOutputStream8WriteTagEj.exit: ; preds = %.preheader.i.i, %13, %15
  %.019.i.i.i.i = phi ptr [ %14, %13 ], [ %21, %15 ], [ %26, %.preheader.i.i ]
  store ptr %.019.i.i.i.i, ptr %5, align 8, !tbaa !20
  %28 = load ptr, ptr %1, align 8, !tbaa !48
  %29 = getelementptr inbounds nuw i8, ptr %28, i64 72
  %30 = load ptr, ptr %29, align 8
  %31 = tail call noundef i32 %30(ptr noundef nonnull align 8 dereferenceable(16) %1)
  %32 = load ptr, ptr %5, align 8, !tbaa !20
  %33 = load ptr, ptr %2, align 8, !tbaa !25
  %.not.i.i = icmp ult ptr %32, %33
  br i1 %.not.i.i, label %_ZN6google8protobuf2io19EpsCopyOutputStream11EnsureSpaceEPh.exit.i, label %34, !prof !15

34:                                               ; preds = %_ZN6google8protobuf2io17CodedOutputStream8WriteTagEj.exit
  %35 = tail call noundef ptr @_ZN6google8protobuf2io19EpsCopyOutputStream19EnsureSpaceFallbackEPh(ptr noundef nonnull align 8 dereferenceable(80) %2, ptr noundef %32)
  br label %_ZN6google8protobuf2io19EpsCopyOutputStream11EnsureSpaceEPh.exit.i

_ZN6google8protobuf2io19EpsCopyOutputStream11EnsureSpaceEPh.exit.i: ; preds = %34, %_ZN6google8protobuf2io17CodedOutputStream8WriteTagEj.exit
  %.0.i.i = phi ptr [ %35, %34 ], [ %32, %_ZN6google8protobuf2io17CodedOutputStream8WriteTagEj.exit ]
  store ptr %.0.i.i, ptr %5, align 8, !tbaa !20
  %36 = trunc i32 %31 to i8
  store i8 %36, ptr %.0.i.i, align 1, !tbaa !16
  %37 = icmp ult i32 %31, 128
  br i1 %37, label %38, label %40

38:                                               ; preds = %_ZN6google8protobuf2io19EpsCopyOutputStream11EnsureSpaceEPh.exit.i
  %39 = getelementptr inbounds nuw i8, ptr %.0.i.i, i64 1
  br label %_ZN6google8protobuf2io17CodedOutputStream13WriteVarint32Ej.exit

40:                                               ; preds = %_ZN6google8protobuf2io19EpsCopyOutputStream11EnsureSpaceEPh.exit.i
  %41 = or i8 %36, -128
  store i8 %41, ptr %.0.i.i, align 1, !tbaa !16
  %42 = lshr i32 %31, 7
  %43 = trunc i32 %42 to i8
  %44 = getelementptr inbounds nuw i8, ptr %.0.i.i, i64 1
  store i8 %43, ptr %44, align 1, !tbaa !16
  %45 = icmp ult i32 %31, 16384
  %46 = getelementptr inbounds nuw i8, ptr %.0.i.i, i64 2
  br i1 %45, label %_ZN6google8protobuf2io17CodedOutputStream13WriteVarint32Ej.exit, label %.preheader.i.preheader

.preheader.i.preheader:                           ; preds = %40
  %scevgep = getelementptr i8, ptr %.0.i.i, i64 1
  %load_initial = load i8, ptr %scevgep, align 1
  br label %.preheader.i

.preheader.i:                                     ; preds = %.preheader.i.preheader, %.preheader.i
  %store_forwarded = phi i8 [ %load_initial, %.preheader.i.preheader ], [ %50, %.preheader.i ]
  %.018.i.i.i = phi i32 [ %42, %.preheader.i.preheader ], [ %49, %.preheader.i ]
  %.0.i.i.i6 = phi ptr [ %46, %.preheader.i.preheader ], [ %51, %.preheader.i ]
  %47 = getelementptr inbounds i8, ptr %.0.i.i.i6, i64 -1
  %48 = or i8 %store_forwarded, -128
  store i8 %48, ptr %47, align 1, !tbaa !16
  %49 = lshr i32 %.018.i.i.i, 7
  %50 = trunc i32 %49 to i8
  store i8 %50, ptr %.0.i.i.i6, align 1, !tbaa !16
  %51 = getelementptr inbounds nuw i8, ptr %.0.i.i.i6, i64 1
  %52 = icmp samesign ugt i32 %.018.i.i.i, 16383
  br i1 %52, label %.preheader.i, label %_ZN6google8protobuf2io17CodedOutputStream13WriteVarint32Ej.exit, !llvm.loop !26

_ZN6google8protobuf2io17CodedOutputStream13WriteVarint32Ej.exit: ; preds = %.preheader.i, %38, %40
  %.019.i.i.i = phi ptr [ %39, %38 ], [ %46, %40 ], [ %51, %.preheader.i ]
  store ptr %.019.i.i.i, ptr %5, align 8, !tbaa !20
  %53 = load ptr, ptr %1, align 8, !tbaa !48
  %54 = getelementptr inbounds nuw i8, ptr %53, i64 88
  %55 = load ptr, ptr %54, align 8
  %56 = tail call noundef ptr %55(ptr noundef nonnull align 8 dereferenceable(16) %1, ptr noundef nonnull %.019.i.i.i, ptr noundef nonnull %2)
  store ptr %56, ptr %5, align 8, !tbaa !20
  ret void
}